target datalayout = "e-m:e-p270:32:32-p271:32:32-p272:64:64-i64:64-i128:128-f80:128-n8:16:32:64-S128"
target triple = "x86_64-pc-linux-gnu"

%struct.Aig_Man_t_ = type { ptr, ptr, ptr, ptr, ptr, ptr, ptr, %struct.Aig_Obj_t_, i32, i32, i32, i32, i32, i32, [7 x i32], i32, ptr, i32, ptr, i32, ptr, i32, i32, i32, ptr, i32, i32, i32, i32, i32, ptr, ptr, i32, ptr, ptr, i32, ptr, ptr, i32, i32, i32, ptr, ptr, ptr, ptr, ptr, ptr, ptr, ptr, ptr, ptr, ptr, ptr, ptr, ptr, i32, ptr, ptr, ptr, ptr, i32, i64, i64, i64, ptr, ptr }
%struct.Aig_Obj_t_ = type { %union.anon, ptr, ptr, i64, i32, i32, %union.anon.0 }
%union.anon = type { ptr }
%union.anon.0 = type { ptr }
%struct.Vec_Ptr_t_ = type { i32, i32, ptr }

; Function Attrs: nounwind uwtable
define internal void @Vec_PtrGrow(ptr noundef %0, i32 noundef %1) #0 {
  %3 = alloca ptr, align 8
  %4 = alloca i32, align 4
  store ptr %0, ptr %3, align 8
  store i32 %1, ptr %4, align 4
  %5 = load ptr, ptr %3, align 8
  %6 = getelementptr inbounds %struct.Vec_Ptr_t_, ptr %5, i32 0, i32 0
  %7 = load i32, ptr %6, align 8
  %8 = load i32, ptr %4, align 4
  %9 = icmp sge i32 %7, %8
  br i1 %9, label %10, label %11

10:                                               ; preds = %2
  br label %36

11:                                               ; preds = %2
  %12 = load ptr, ptr %3, align 8
  %13 = getelementptr inbounds %struct.Vec_Ptr_t_, ptr %12, i32 0, i32 2
  %14 = load ptr, ptr %13, align 8
  %15 = icmp ne ptr %14, null
  br i1 %15, label %16, label %24

16:                                               ; preds = %11
  %17 = load ptr, ptr %3, align 8
  %18 = getelementptr inbounds %struct.Vec_Ptr_t_, ptr %17, i32 0, i32 2
  %19 = load ptr, ptr %18, align 8
  %20 = load i32, ptr %4, align 4
  %21 = sext i32 %20 to i64
  %22 = mul i64 8, %21
  %23 = call ptr @realloc(ptr noundef %19, i64 noundef %22) #11
  br label %29

24:                                               ; preds = %11
  %25 = load i32, ptr %4, align 4
  %26 = sext i32 %25 to i64
  %27 = mul i64 8, %26
  %28 = call noalias ptr @malloc(i64 noundef %27) #8
  br label %29

29:                                               ; preds = %24, %16
  %30 = phi ptr [ %23, %16 ], [ %28, %24 ]
  %31 = load ptr, ptr %3, align 8
  %32 = getelementptr inbounds %struct.Vec_Ptr_t_, ptr %31, i32 0, i32 2
  store ptr %30, ptr %32, align 8
  %33 = load i32, ptr %4, align 4
  %34 = load ptr, ptr %3, align 8
  %35 = getelementptr inbounds %struct.Vec_Ptr_t_, ptr %34, i32 0, i32 0
  store i32 %33, ptr %35, align 8
  br label %36

36:                                               ; preds = %29, %10
  ret void
}

; Function Attrs: nounwind uwtable
define internal i32 @Aig_IsComplement(ptr noundef %0) #0 {
  %2 = alloca ptr, align 8
  store ptr %0, ptr %2, align 8
  %3 = load ptr, ptr %2, align 8
  %4 = ptrtoint ptr %3 to i64
  %5 = and i64 %4, 1
  %6 = trunc i64 %5 to i32
  ret i32 %6
}

; Function Attrs: nounwind uwtable
define internal ptr @Aig_Regular(ptr noundef %0) #0 {
  %2 = alloca ptr, align 8
  store ptr %0, ptr %2, align 8
  %3 = load ptr, ptr %2, align 8
  %4 = ptrtoint ptr %3 to i64
  %5 = and i64 %4, -2
  %6 = inttoptr i64 %5 to ptr
  ret ptr %6
}

; Function Attrs: nounwind uwtable
define internal void @Vec_PtrPush(ptr noundef %0, ptr noundef %1) #0 {
  %3 = alloca ptr, align 8
  %4 = alloca ptr, align 8
  store ptr %0, ptr %3, align 8
  store ptr %1, ptr %4, align 8
  %5 = load ptr, ptr %3, align 8
  %6 = getelementptr inbounds %struct.Vec_Ptr_t_, ptr %5, i32 0, i32 1
  %7 = load i32, ptr %6, align 4
  %8 = load ptr, ptr %3, align 8
  %9 = getelementptr inbounds %struct.Vec_Ptr_t_, ptr %8, i32 0, i32 0
  %10 = load i32, ptr %9, align 8
  %11 = icmp eq i32 %7, %10
  br i1 %11, label %12, label %26

12:                                               ; preds = %2
  %13 = load ptr, ptr %3, align 8
  %14 = getelementptr inbounds %struct.Vec_Ptr_t_, ptr %13, i32 0, i32 0
  %15 = load i32, ptr %14, align 8
  %16 = icmp slt i32 %15, 16
  br i1 %16, label %17, label %19

17:                                               ; preds = %12
  %18 = load ptr, ptr %3, align 8
  call void @Vec_PtrGrow(ptr noundef %18, i32 noundef 16)
  br label %25

19:                                               ; preds = %12
  %20 = load ptr, ptr %3, align 8
  %21 = load ptr, ptr %3, align 8
  %22 = getelementptr inbounds %struct.Vec_Ptr_t_, ptr %21, i32 0, i32 0
  %23 = load i32, ptr %22, align 8
  %24 = mul nsw i32 2, %23
  call void @Vec_PtrGrow(ptr noundef %20, i32 noundef %24)
  br label %25

25:                                               ; preds = %19, %17
  br label %26

26:                                               ; preds = %25, %2
  %27 = load ptr, ptr %4, align 8
  %28 = load ptr, ptr %3, align 8
  %29 = getelementptr inbounds %struct.Vec_Ptr_t_, ptr %28, i32 0, i32 2
  %30 = load ptr, ptr %29, align 8
  %31 = load ptr, ptr %3, align 8
  %32 = getelementptr inbounds %struct.Vec_Ptr_t_, ptr %31, i32 0, i32 1
  %33 = load i32, ptr %32, align 4
  %34 = add nsw i32 %33, 1
  store i32 %34, ptr %32, align 4
  %35 = sext i32 %33 to i64
  %36 = getelementptr inbounds ptr, ptr %30, i64 %35
  store ptr %27, ptr %36, align 8
  ret void
}

; Function Attrs: nounwind uwtable
define internal ptr @Vec_PtrAlloc(i32 noundef %0) #0 {
  %2 = alloca i32, align 4
  %3 = alloca ptr, align 8
  store i32 %0, ptr %2, align 4
  %4 = call noalias ptr @malloc(i64 noundef 16) #8
  store ptr %4, ptr %3, align 8
  %5 = load i32, ptr %2, align 4
  %6 = icmp sgt i32 %5, 0
  br i1 %6, label %7, label %11

7:                                                ; preds = %1
  %8 = load i32, ptr %2, align 4
  %9 = icmp slt i32 %8, 8
  br i1 %9, label %10, label %11

10:                                               ; preds = %7
  store i32 8, ptr %2, align 4
  br label %11

11:                                               ; preds = %10, %7, %1
  %12 = load ptr, ptr %3, align 8
  %13 = getelementptr inbounds %struct.Vec_Ptr_t_, ptr %12, i32 0, i32 1
  store i32 0, ptr %13, align 4
  %14 = load i32, ptr %2, align 4
  %15 = load ptr, ptr %3, align 8
  %16 = getelementptr inbounds %struct.Vec_Ptr_t_, ptr %15, i32 0, i32 0
  store i32 %14, ptr %16, align 8
  %17 = load ptr, ptr %3, align 8
  %18 = getelementptr inbounds %struct.Vec_Ptr_t_, ptr %17, i32 0, i32 0
  %19 = load i32, ptr %18, align 8
  %20 = icmp ne i32 %19, 0
  br i1 %20, label %21, label %28

21:                                               ; preds = %11
  %22 = load ptr, ptr %3, align 8
  %23 = getelementptr inbounds %struct.Vec_Ptr_t_, ptr %22, i32 0, i32 0
  %24 = load i32, ptr %23, align 8
  %25 = sext i32 %24 to i64
  %26 = mul i64 8, %25
  %27 = call noalias ptr @malloc(i64 noundef %26) #8
  br label %29

28:                                               ; preds = %11
  br label %29

29:                                               ; preds = %28, %21
  %30 = phi ptr [ %27, %21 ], [ null, %28 ]
  %31 = load ptr, ptr %3, align 8
  %32 = getelementptr inbounds %struct.Vec_Ptr_t_, ptr %31, i32 0, i32 2
  store ptr %30, ptr %32, align 8
  %33 = load ptr, ptr %3, align 8
  ret ptr %33
}

; Function Attrs: nounwind uwtable
define internal i32 @Aig_ObjFaninC0(ptr noundef %0) #0 {
  %2 = alloca ptr, align 8
  store ptr %0, ptr %2, align 8
  %3 = load ptr, ptr %2, align 8
  %4 = getelementptr inbounds %struct.Aig_Obj_t_, ptr %3, i32 0, i32 1
  %5 = load ptr, ptr %4, align 8
  %6 = call i32 @Aig_IsComplement(ptr noundef %5)
  ret i32 %6
}

; Function Attrs: nounwind uwtable
define internal ptr @Aig_ObjFanin0(ptr noundef %0) #0 {
  %2 = alloca ptr, align 8
  store ptr %0, ptr %2, align 8
  %3 = load ptr, ptr %2, align 8
  %4 = getelementptr inbounds %struct.Aig_Obj_t_, ptr %3, i32 0, i32 1
  %5 = load ptr, ptr %4, align 8
  %6 = call ptr @Aig_Regular(ptr noundef %5)
  ret ptr %6
}

; Function Attrs: nounwind uwtable
define internal ptr @Vec_PtrEntry(ptr noundef %0, i32 noundef %1) #0 {
  %3 = alloca ptr, align 8
  %4 = alloca i32, align 4
  store ptr %0, ptr %3, align 8
  store i32 %1, ptr %4, align 4
  %5 = load ptr, ptr %3, align 8
  %6 = getelementptr inbounds %struct.Vec_Ptr_t_, ptr %5, i32 0, i32 2
  %7 = load ptr, ptr %6, align 8
  %8 = load i32, ptr %4, align 4
  %9 = sext i32 %8 to i64
  %10 = getelementptr inbounds ptr, ptr %7, i64 %9
  %11 = load ptr, ptr %10, align 8
  ret ptr %11
}

; Function Attrs: nounwind uwtable
define internal i32 @Saig_ManPoNum(ptr noundef %0) #0 {
  %2 = alloca ptr, align 8
  store ptr %0, ptr %2, align 8
  %3 = load ptr, ptr %2, align 8
  %4 = getelementptr inbounds %struct.Aig_Man_t_, ptr %3, i32 0, i32 10
  %5 = load i32, ptr %4, align 8
  ret i32 %5
}

; Function Attrs: nounwind uwtable
define internal i32 @Saig_ManRegNum(ptr noundef %0) #0 {
  %2 = alloca ptr, align 8
  store ptr %0, ptr %2, align 8
  %3 = load ptr, ptr %2, align 8
  %4 = getelementptr inbounds %struct.Aig_Man_t_, ptr %3, i32 0, i32 8
  %5 = load i32, ptr %4, align 8
  ret i32 %5
}

; Function Attrs: nounwind uwtable
define ptr @Saig_ManGetRegistersToExclude(ptr noundef %0) #0 {
  %2 = alloca ptr, align 8
  %3 = alloca ptr, align 8
  %4 = alloca ptr, align 8
  %5 = alloca ptr, align 8
  %6 = alloca i32, align 4
  %7 = alloca i32, align 4
  store ptr %0, ptr %2, align 8
  store i32 0, ptr %6, align 4
  br label %8

8:                                                ; preds = %43, %1
  %9 = load i32, ptr %6, align 4
  %10 = load ptr, ptr %2, align 8
  %11 = call i32 @Saig_ManRegNum(ptr noundef %10)
  %12 = icmp slt i32 %9, %11
  br i1 %12, label %13, label %22

13:                                               ; preds = %8
  %14 = load ptr, ptr %2, align 8
  %15 = getelementptr inbounds %struct.Aig_Man_t_, ptr %14, i32 0, i32 3
  %16 = load ptr, ptr %15, align 8
  %17 = load i32, ptr %6, align 4
  %18 = load ptr, ptr %2, align 8
  %19 = call i32 @Saig_ManPoNum(ptr noundef %18)
  %20 = add nsw i32 %17, %19
  %21 = call ptr @Vec_PtrEntry(ptr noundef %16, i32 noundef %20)
  store ptr %21, ptr %4, align 8
  br label %22

22:                                               ; preds = %13, %8
  %23 = phi i1 [ false, %8 ], [ true, %13 ]
  br i1 %23, label %24, label %46

24:                                               ; preds = %22
  %25 = load ptr, ptr %4, align 8
  %26 = call ptr @Aig_ObjFanin0(ptr noundef %25)
  store ptr %26, ptr %5, align 8
  %27 = load ptr, ptr %4, align 8
  %28 = call i32 @Aig_ObjFaninC0(ptr noundef %27)
  %29 = icmp ne i32 %28, 0
  br i1 %29, label %36, label %30

30:                                               ; preds = %24
  %31 = load ptr, ptr %5, align 8
  %32 = getelementptr inbounds %struct.Aig_Obj_t_, ptr %31, i32 0, i32 3
  %33 = load i64, ptr %32, align 8
  %34 = and i64 %33, -17
  %35 = or i64 %34, 16
  store i64 %35, ptr %32, align 8
  br label %42

36:                                               ; preds = %24
  %37 = load ptr, ptr %5, align 8
  %38 = getelementptr inbounds %struct.Aig_Obj_t_, ptr %37, i32 0, i32 3
  %39 = load i64, ptr %38, align 8
  %40 = and i64 %39, -33
  %41 = or i64 %40, 32
  store i64 %41, ptr %38, align 8
  br label %42

42:                                               ; preds = %36, %30
  br label %43

43:                                               ; preds = %42
  %44 = load i32, ptr %6, align 4
  %45 = add nsw i32 %44, 1
  store i32 %45, ptr %6, align 4
  br label %8, !llvm.loop !32

46:                                               ; preds = %22
  store i32 0, ptr %7, align 4
  store i32 0, ptr %6, align 4
  br label %47

47:                                               ; preds = %86, %46
  %48 = load i32, ptr %6, align 4
  %49 = load ptr, ptr %2, align 8
  %50 = call i32 @Saig_ManRegNum(ptr noundef %49)
  %51 = icmp slt i32 %48, %50
  br i1 %51, label %52, label %61

52:                                               ; preds = %47
  %53 = load ptr, ptr %2, align 8
  %54 = getelementptr inbounds %struct.Aig_Man_t_, ptr %53, i32 0, i32 3
  %55 = load ptr, ptr %54, align 8
  %56 = load i32, ptr %6, align 4
  %57 = load ptr, ptr %2, align 8
  %58 = call i32 @Saig_ManPoNum(ptr noundef %57)
  %59 = add nsw i32 %56, %58
  %60 = call ptr @Vec_PtrEntry(ptr noundef %55, i32 noundef %59)
  store ptr %60, ptr %4, align 8
  br label %61

61:                                               ; preds = %52, %47
  %62 = phi i1 [ false, %47 ], [ true, %52 ]
  br i1 %62, label %63, label %89

63:                                               ; preds = %61
  %64 = load ptr, ptr %4, align 8
  %65 = call ptr @Aig_ObjFanin0(ptr noundef %64)
  store ptr %65, ptr %5, align 8
  %66 = load ptr, ptr %5, align 8
  %67 = getelementptr inbounds %struct.Aig_Obj_t_, ptr %66, i32 0, i32 3
  %68 = load i64, ptr %67, align 8
  %69 = lshr i64 %68, 4
  %70 = and i64 %69, 1
  %71 = trunc i64 %70 to i32
  %72 = icmp ne i32 %71, 0
  br i1 %72, label %73, label %81

73:                                               ; preds = %63
  %74 = load ptr, ptr %5, align 8
  %75 = getelementptr inbounds %struct.Aig_Obj_t_, ptr %74, i32 0, i32 3
  %76 = load i64, ptr %75, align 8
  %77 = lshr i64 %76, 5
  %78 = and i64 %77, 1
  %79 = trunc i64 %78 to i32
  %80 = icmp ne i32 %79, 0
  br label %81

81:                                               ; preds = %73, %63
  %82 = phi i1 [ false, %63 ], [ %80, %73 ]
  %83 = zext i1 %82 to i32
  %84 = load i32, ptr %7, align 4
  %85 = add nsw i32 %84, %83
  store i32 %85, ptr %7, align 4
  br label %86

86:                                               ; preds = %81
  %87 = load i32, ptr %6, align 4
  %88 = add nsw i32 %87, 1
  store i32 %88, ptr %6, align 4
  br label %47, !llvm.loop !33

89:                                               ; preds = %61
  %90 = call ptr @Vec_PtrAlloc(i32 noundef 100)
  store ptr %90, ptr %3, align 8
  %91 = load i32, ptr %7, align 4
  %92 = icmp sgt i32 %91, 0
  br i1 %92, label %93, label %136

93:                                               ; preds = %89
  store i32 0, ptr %6, align 4
  br label %94

94:                                               ; preds = %132, %93
  %95 = load i32, ptr %6, align 4
  %96 = load ptr, ptr %2, align 8
  %97 = call i32 @Saig_ManRegNum(ptr noundef %96)
  %98 = icmp slt i32 %95, %97
  br i1 %98, label %99, label %108

99:                                               ; preds = %94
  %100 = load ptr, ptr %2, align 8
  %101 = getelementptr inbounds %struct.Aig_Man_t_, ptr %100, i32 0, i32 3
  %102 = load ptr, ptr %101, align 8
  %103 = load i32, ptr %6, align 4
  %104 = load ptr, ptr %2, align 8
  %105 = call i32 @Saig_ManPoNum(ptr noundef %104)
  %106 = add nsw i32 %103, %105
  %107 = call ptr @Vec_PtrEntry(ptr noundef %102, i32 noundef %106)
  store ptr %107, ptr %4, align 8
  br label %108

108:                                              ; preds = %99, %94
  %109 = phi i1 [ false, %94 ], [ true, %99 ]
  br i1 %109, label %110, label %135

110:                                              ; preds = %108
  %111 = load ptr, ptr %4, align 8
  %112 = call ptr @Aig_ObjFanin0(ptr noundef %111)
  store ptr %112, ptr %5, align 8
  %113 = load ptr, ptr %5, align 8
  %114 = getelementptr inbounds %struct.Aig_Obj_t_, ptr %113, i32 0, i32 3
  %115 = load i64, ptr %114, align 8
  %116 = lshr i64 %115, 4
  %117 = and i64 %116, 1
  %118 = trunc i64 %117 to i32
  %119 = icmp ne i32 %118, 0
  br i1 %119, label %120, label %131

120:                                              ; preds = %110
  %121 = load ptr, ptr %5, align 8
  %122 = getelementptr inbounds %struct.Aig_Obj_t_, ptr %121, i32 0, i32 3
  %123 = load i64, ptr %122, align 8
  %124 = lshr i64 %123, 5
  %125 = and i64 %124, 1
  %126 = trunc i64 %125 to i32
  %127 = icmp ne i32 %126, 0
  br i1 %127, label %128, label %131

128:                                              ; preds = %120
  %129 = load ptr, ptr %3, align 8
  %130 = load ptr, ptr %4, align 8
  call void @Vec_PtrPush(ptr noundef %129, ptr noundef %130)
  br label %131

131:                                              ; preds = %128, %120, %110
  br label %132

132:                                              ; preds = %131
  %133 = load i32, ptr %6, align 4
  %134 = add nsw i32 %133, 1
  store i32 %134, ptr %6, align 4
  br label %94, !llvm.loop !34

135:                                              ; preds = %108
  br label %136

136:                                              ; preds = %135, %89
  store i32 0, ptr %6, align 4
  br label %137

137:                                              ; preds = %166, %136
  %138 = load i32, ptr %6, align 4
  %139 = load ptr, ptr %2, align 8
  %140 = call i32 @Saig_ManRegNum(ptr noundef %139)
  %141 = icmp slt i32 %138, %140
  br i1 %141, label %142, label %151

142:                                              ; preds = %137
  %143 = load ptr, ptr %2, align 8
  %144 = getelementptr inbounds %struct.Aig_Man_t_, ptr %143, i32 0, i32 3
  %145 = load ptr, ptr %144, align 8
  %146 = load i32, ptr %6, align 4
  %147 = load ptr, ptr %2, align 8
  %148 = call i32 @Saig_ManPoNum(ptr noundef %147)
  %149 = add nsw i32 %146, %148
  %150 = call ptr @Vec_PtrEntry(ptr noundef %145, i32 noundef %149)
  store ptr %150, ptr %4, align 8
  br label %151

151:                                              ; preds = %142, %137
  %152 = phi i1 [ false, %137 ], [ true, %142 ]
  br i1 %152, label %153, label %169

153:                                              ; preds = %151
  %154 = load ptr, ptr %4, align 8
  %155 = call ptr @Aig_ObjFanin0(ptr noundef %154)
  store ptr %155, ptr %5, align 8
  %156 = load ptr, ptr %5, align 8
  %157 = getelementptr inbounds %struct.Aig_Obj_t_, ptr %156, i32 0, i32 3
  %158 = load i64, ptr %157, align 8
  %159 = and i64 %158, -33
  %160 = or i64 %159, 0
  store i64 %160, ptr %157, align 8
  %161 = load ptr, ptr %5, align 8
  %162 = getelementptr inbounds %struct.Aig_Obj_t_, ptr %161, i32 0, i32 3
  %163 = load i64, ptr %162, align 8
  %164 = and i64 %163, -17
  %165 = or i64 %164, 0
  store i64 %165, ptr %162, align 8
  br label %166

166:                                              ; preds = %153
  %167 = load i32, ptr %6, align 4
  %168 = add nsw i32 %167, 1
  store i32 %168, ptr %6, align 4
  br label %137, !llvm.loop !35

169:                                              ; preds = %151
  %170 = load ptr, ptr %3, align 8
  ret ptr %170
}