; Function Attrs: nounwind uwtable
define noalias noundef ptr @Saig_ManGetRegistersToExclude(ptr noundef readonly captures(none) %0) local_unnamed_addr #0 {
  %2 = getelementptr i8, ptr %0, i64 104
  %.val6768 = load i32, ptr %2, align 8
  %3 = icmp sgt i32 %.val6768, 0
  br i1 %3, label %.lr.ph, label %.critedge2

.lr.ph:                                           ; preds = %1
  %4 = getelementptr inbounds nuw i8, ptr %0, i64 24
  %5 = getelementptr i8, ptr %0, i64 112
  br label %12

.critedge.preheader:                              ; preds = %12
  %6 = icmp sgt i32 %.val67, 0
  br i1 %6, label %.lr.ph72, label %.critedge2

.lr.ph72:                                         ; preds = %.critedge.preheader
  %7 = getelementptr inbounds nuw i8, ptr %0, i64 24
  %8 = load ptr, ptr %7, align 8
  %9 = getelementptr i8, ptr %0, i64 112
  %.val62 = load i32, ptr %9, align 8
  %10 = getelementptr i8, ptr %8, i64 8
  %.val53 = load ptr, ptr %10, align 8
  %11 = sext i32 %.val62 to i64
  %wide.trip.count = zext nneg i32 %.val67 to i64
  %invariant.gep = getelementptr ptr, ptr %.val53, i64 %11
  br label %.critedge

12:                                               ; preds = %.lr.ph, %12
  %.04769 = phi i32 [ 0, %.lr.ph ], [ %27, %12 ]
  %13 = load ptr, ptr %4, align 8
  %.val63 = load i32, ptr %5, align 8
  %14 = add nsw i32 %.val63, %.04769
  %15 = getelementptr i8, ptr %13, i64 8
  %.val54 = load ptr, ptr %15, align 8
  %16 = sext i32 %14 to i64
  %17 = getelementptr inbounds ptr, ptr %.val54, i64 %16
  %18 = load ptr, ptr %17, align 8
  %19 = getelementptr i8, ptr %18, i64 8
  %.val58 = load ptr, ptr %19, align 8
  %20 = ptrtoint ptr %.val58 to i64
  %21 = and i64 %20, -2
  %22 = inttoptr i64 %21 to ptr
  %23 = and i64 %20, 1
  %.not51 = icmp eq i64 %23, 0
  %24 = getelementptr inbounds nuw i8, ptr %22, i64 24
  %25 = load i64, ptr %24, align 8
  %. = select i1 %.not51, i64 16, i64 32
  %26 = or i64 %25, %.
  store i64 %26, ptr %24, align 8
  %27 = add nuw nsw i32 %.04769, 1
  %.val67 = load i32, ptr %2, align 8
  %28 = icmp slt i32 %27, %.val67
  br i1 %28, label %12, label %.critedge.preheader, !llvm.loop !31

.critedge:                                        ; preds = %.lr.ph72, %.critedge
  %indvars.iv = phi i64 [ 0, %.lr.ph72 ], [ %indvars.iv.next, %.critedge ]
  %.071 = phi i32 [ 0, %.lr.ph72 ], [ %41, %.critedge ]
  %gep = getelementptr ptr, ptr %invariant.gep, i64 %indvars.iv
  %29 = load ptr, ptr %gep, align 8
  %30 = getelementptr i8, ptr %29, i64 8
  %.val57 = load ptr, ptr %30, align 8
  %31 = ptrtoint ptr %.val57 to i64
  %32 = and i64 %31, -2
  %33 = inttoptr i64 %32 to ptr
  %34 = getelementptr inbounds nuw i8, ptr %33, i64 24
  %35 = load i64, ptr %34, align 8
  %36 = and i64 %35, 16
  %.not50 = icmp eq i64 %36, 0
  %37 = trunc i64 %35 to i32
  %38 = lshr i32 %37, 5
  %39 = and i32 %38, 1
  %40 = select i1 %.not50, i32 0, i32 %39
  %41 = add nuw nsw i32 %40, %.071
  %indvars.iv.next = add nuw nsw i64 %indvars.iv, 1
  %exitcond.not = icmp eq i64 %indvars.iv.next, %wide.trip.count
  br i1 %exitcond.not, label %.critedge2.loopexit, label %.critedge, !llvm.loop !32

.critedge2.loopexit:                              ; preds = %.critedge
  %42 = icmp eq i32 %41, 0
  br label %.critedge2

.critedge2:                                       ; preds = %1, %.critedge2.loopexit, %.critedge.preheader
  %.not = phi i1 [ true, %.critedge.preheader ], [ false, %.critedge2.loopexit ], [ true, %1 ]
  %.val657486 = phi i32 [ %.val67, %.critedge.preheader ], [ %.val67, %.critedge2.loopexit ], [ %.val6768, %1 ]
  %.0.lcssa = phi i1 [ true, %.critedge.preheader ], [ %42, %.critedge2.loopexit ], [ true, %1 ]
  %43 = tail call noalias dereferenceable_or_null(16) ptr @malloc(i64 noundef 16) #14
  %44 = getelementptr inbounds nuw i8, ptr %43, i64 4
  store i32 0, ptr %44, align 4
  store i32 100, ptr %43, align 8
  %45 = tail call noalias dereferenceable_or_null(800) ptr @malloc(i64 noundef 800) #14
  %46 = getelementptr inbounds nuw i8, ptr %43, i64 8
  store ptr %45, ptr %46, align 8
  %brmerge = or i1 %.0.lcssa, %.not
  br i1 %brmerge, label %.critedge4, label %.lr.ph76

.lr.ph76:                                         ; preds = %.critedge2
  %47 = getelementptr inbounds nuw i8, ptr %0, i64 24
  %48 = getelementptr i8, ptr %0, i64 112
  br label %49

49:                                               ; preds = %.lr.ph76, %91
  %.val6582 = phi i32 [ %.val657486, %.lr.ph76 ], [ %.val65, %91 ]
  %.275 = phi i32 [ 0, %.lr.ph76 ], [ %92, %91 ]
  %50 = load ptr, ptr %47, align 8
  %.val61 = load i32, ptr %48, align 8
  %51 = add nsw i32 %.val61, %.275
  %52 = getelementptr i8, ptr %50, i64 8
  %.val52 = load ptr, ptr %52, align 8
  %53 = sext i32 %51 to i64
  %54 = getelementptr inbounds ptr, ptr %.val52, i64 %53
  %55 = load ptr, ptr %54, align 8
  %56 = getelementptr i8, ptr %55, i64 8
  %.val56 = load ptr, ptr %56, align 8
  %57 = ptrtoint ptr %.val56 to i64
  %58 = and i64 %57, -2
  %59 = inttoptr i64 %58 to ptr
  %60 = getelementptr inbounds nuw i8, ptr %59, i64 24
  %61 = load i64, ptr %60, align 8
  %62 = and i64 %61, 48
  %or.cond.not = icmp eq i64 %62, 48
  br i1 %or.cond.not, label %63, label %91

63:                                               ; preds = %49
  %64 = load i32, ptr %44, align 4
  %65 = load i32, ptr %43, align 8
  %66 = icmp eq i32 %64, %65
  br i1 %66, label %67, label %.Vec_PtrGrow.exit11_crit_edge.i

.Vec_PtrGrow.exit11_crit_edge.i:                  ; preds = %63
  %.pre.i = load ptr, ptr %46, align 8
  br label %Vec_PtrPush.exit

67:                                               ; preds = %63
  %68 = icmp slt i32 %64, 16
  br i1 %68, label %69, label %76

69:                                               ; preds = %67
  %70 = load ptr, ptr %46, align 8
  %.not9.i.i = icmp eq ptr %70, null
  br i1 %.not9.i.i, label %73, label %71

71:                                               ; preds = %69
  %72 = tail call dereferenceable_or_null(128) ptr @realloc(ptr noundef nonnull %70, i64 noundef 128) #15
  br label %Vec_PtrGrow.exit.i

73:                                               ; preds = %69
  %74 = tail call noalias dereferenceable_or_null(128) ptr @malloc(i64 noundef 128) #14
  br label %Vec_PtrGrow.exit.i

Vec_PtrGrow.exit.i:                               ; preds = %73, %71
  %75 = phi ptr [ %72, %71 ], [ %74, %73 ]
  store ptr %75, ptr %46, align 8
  store i32 16, ptr %43, align 8
  br label %Vec_PtrPush.exit

76:                                               ; preds = %67
  %77 = shl nuw nsw i32 %64, 1
  %78 = load ptr, ptr %46, align 8
  %.not9.i10.i = icmp eq ptr %78, null
  %79 = zext nneg i32 %77 to i64
  %80 = shl nuw nsw i64 %79, 3
  br i1 %.not9.i10.i, label %83, label %81

81:                                               ; preds = %76
  %82 = tail call ptr @realloc(ptr noundef nonnull %78, i64 noundef %80) #15
  br label %85

83:                                               ; preds = %76
  %84 = tail call noalias ptr @malloc(i64 noundef %80) #14
  br label %85

85:                                               ; preds = %83, %81
  %86 = phi ptr [ %82, %81 ], [ %84, %83 ]
  store ptr %86, ptr %46, align 8
  store i32 %77, ptr %43, align 8
  br label %Vec_PtrPush.exit

Vec_PtrPush.exit:                                 ; preds = %.Vec_PtrGrow.exit11_crit_edge.i, %Vec_PtrGrow.exit.i, %85
  %87 = phi ptr [ %.pre.i, %.Vec_PtrGrow.exit11_crit_edge.i ], [ %86, %85 ], [ %75, %Vec_PtrGrow.exit.i ]
  %88 = add nsw i32 %64, 1
  store i32 %88, ptr %44, align 4
  %89 = sext i32 %64 to i64
  %90 = getelementptr inbounds ptr, ptr %87, i64 %89
  store ptr %55, ptr %90, align 8
  %.val65.pre = load i32, ptr %2, align 8
  br label %91

91:                                               ; preds = %49, %Vec_PtrPush.exit
  %.val65 = phi i32 [ %.val6582, %49 ], [ %.val65.pre, %Vec_PtrPush.exit ]
  %92 = add nuw nsw i32 %.275, 1
  %93 = icmp slt i32 %92, %.val65
  br i1 %93, label %49, label %.critedge4, !llvm.loop !33

.critedge4:                                       ; preds = %91, %.critedge2
  %.val6477 = phi i32 [ %.val657486, %.critedge2 ], [ %.val65, %91 ]
  %94 = icmp sgt i32 %.val6477, 0
  br i1 %94, label %.lr.ph79, label %.critedge6

.lr.ph79:                                         ; preds = %.critedge4
  %95 = getelementptr inbounds nuw i8, ptr %0, i64 24
  %96 = getelementptr i8, ptr %0, i64 112
  br label %97

97:                                               ; preds = %.lr.ph79, %97
  %.378 = phi i32 [ 0, %.lr.ph79 ], [ %111, %97 ]
  %98 = load ptr, ptr %95, align 8
  %.val60 = load i32, ptr %96, align 8
  %99 = add nsw i32 %.val60, %.378
  %100 = getelementptr i8, ptr %98, i64 8
  %.val = load ptr, ptr %100, align 8
  %101 = sext i32 %99 to i64
  %102 = getelementptr inbounds ptr, ptr %.val, i64 %101
  %103 = load ptr, ptr %102, align 8
  %104 = getelementptr i8, ptr %103, i64 8
  %.val55 = load ptr, ptr %104, align 8
  %105 = ptrtoint ptr %.val55 to i64
  %106 = and i64 %105, -2
  %107 = inttoptr i64 %106 to ptr
  %108 = getelementptr inbounds nuw i8, ptr %107, i64 24
  %109 = load i64, ptr %108, align 8
  %110 = and i64 %109, -49
  store i64 %110, ptr %108, align 8
  %111 = add nuw nsw i32 %.378, 1
  %.val64 = load i32, ptr %2, align 8
  %112 = icmp slt i32 %111, %.val64
  br i1 %112, label %97, label %.critedge6, !llvm.loop !34

.critedge6:                                       ; preds = %97, %.critedge4
  ret ptr %43
}